(dp1
S'com.apple.FinderInfo'
p2
S'dataRLMZ\x01@\x00\x00\x00\x00\x00\x00\x00\x00\x00\x00\x00\x00\x00\x00\x00\x00\x00\x00\x00\x00\x00\x00'
p3
sS'com.apple.ResourceFork'
p4
S'\x00\x00\x01\x00\x00\x00\xd9\x03\x00\x00\xd8\x03\x00\x00\x01E\xff\xfe\xfd\xff\xff\xf9\xfa\x81\xff\xfa\x00\xf9\xfd\xfa\x08\xf9\xfa\xf9\xfa\xfa\xf9\xfa\xf9V\xfd\xf9\x00\xfa\xfc\xf9\xfd\xfa\x07Data ID\x02\x00\x02\x00dataRLMZ\x01\x00\x004\x00@\x00\x00\x00\x04\xd83\x02\x00dataRLMZ\x01\x00\x004\x00@\x00\x00\x00\x00\x00\x00\x00\x00\x00\x00\x00\x00\x00\x00\x00\x04M\xb4\xb3\x0b\xe7%\x00\x018\x80\x00\x00\xd6\x1e\xfd\x02\xff\xfe\xff\xfd\xfe\x02\xff\xfe\xfd\x02C\xff\xfd\x02\xfe\xfd\xfe\xfe\xfd\x00\xfe\xfe\xfd\xfd\xfe\x03\xfd\xac\xfe\xfd\xfd\xfe\xff\xfd\x00\xfe\xfe\xfd\t\xff\xfe\xfd\xfe\xfe\xfd\xfd\xac\xfe\xfe\xfe\xfd\xff\xfe\x01\xff\xfd\xfe\xfe\xfe\xfd\x02\xfe\xfd\xac\xfe\xfe\x00\xfd\xfd\xfe\x02\xac\xfd\xff\xfe\xfe\x06\xac\xfd\xff\xfe\xfd\xac\xfe\xfc\xfd\x00\xfe\xfd\xfd\x06\xac\xfd\xfe\xfd\xfe\xfd\xfd\xfc\xfe\x00\xff\xfc\xfe\xfd\xfd\x00\xfe\xfc\xfd\x04\xfe\xfd\xfe\xfe\xfd\xfe\xfe\xff\xfd\x02\xac\xfd\xfe\xff\xfd\x02\xfe\x00\x00\x00C\x07\x00\x80\x00\x00\x00\rVersion 7.0.0.Version 7.0.0 Copyright\xa9 1995-99 Tim Phillips.\x00\x00\x0cC\x00\xcd\x0eInvisible Skin\tAdrenelin\x0bHeal Poison\x0fHeat Resistance\x0fCold Resistance\x13Chemical Resistance\rMuscle Potion\x0bImprovement\x06Poison\rVaporous Form\nWaterworld\x11Heal Small Wounds\x12Heal Medium Wounds\x11Heal Large Wounds\x13Heal Massive Wounds\x12Aqua Luck Stone +3\x14Copper Luck Stone +3\x14Yellow Luck Stone +3\x13Green Luck Stone +3\x14Purple Luck Stone +3\x12Blue Luck Stone +3\x11Red Luck Stone +3\x16Speckled Luck Stone +2\x12Ring of Defense +3\x12Ring of Defense +5\x12Ring of Defense +7\x0cRing of Heat\x0cRing of Cold\x17Ring of the Warriors +3\x18Ring of Creature Summons\x0eRing of Fog +4\x1dRing of Magic Resistance +10%\x0fRing of Healing\x0cRing of Fech\x11Ring of Xuthcalie\x14Ring of Entanglement\x16Necklace of Fire Balls\x1bNecklace of Lightning Bolts\x13Necklace of Revival\x18Necklace of Many Wonders\x1cNecklace of the Nether World\x10Necklace of Keys\x16Necklace of Acrobatics\x11Arcane Garland +4\x19Necklace of Protection +5\x15Necklace of Spells +2\x15Necklace of the Abyss\x14Bitter Sweet +1 (-2)\x1aNecklace of Invisible Skin\x13Necklace of Shen +3\x17Necklace of Shackles -5\x15Necklace of Shielding\x0bJailers Key\nBrass Keys\x08Iron Key\x10Tome of Shalizar\x14The Book of Judgment\x11Book of Turanians\x14Writ of the Ancients\x0ePrism of Power\x12Dancer of the Dead\x04Book\x14Crown of Safe Return\x0fHeavy Brass Key\x0cSkeleton Key\x0eSelinadas Gift\x08Tools +5\tTools +10\tTools +15\tTools +20\x0bCursed Book\x0fRing of Revival\rBelt of Brawn\x12Belt of Deflection\x10Quiver of Tchart\x17Quiver of Protection +2\x0fQuiver of Speed\x1aQuiver of Magic Resistance\x13Quiver of Confusion\x12Quiver of Strength\x0eQuiver of Luck\x0eImproved Brawn\x12Improved Knowledge\x11Improved Judgment\x10Improved Agility\x11Improved Vitality\x10Improved Stamina\x0eImproved Brawn\rHealing Cream\x0cTroll Statue\x0cSnake Statue\rDragon Statue\x0eCombat Mask +4\x14Pearled Ion Stone +9\x11Horn of Summoning\x14Sorcerer Scroll Case\x12Priest Scroll Case\x15Enchanter Scroll Case\x0cUnholy Visor\x0cJesters Prey\x0bShadow Mask\x10Blind Mans Folly\x0bConstrictor\x14Rod of Transmutation\x11Rod of Shattering\x11Staff of the Ages\x15Staff of Mind Control\x17Scepter of Clairvoyance\x18Scepter of Soul Stealing\x13Staff of Anti Magic\x14Trinity Boomerang +4\x0eLeaf of Apollo\rSerpents Head\x10Emerald Heirloom\x12Eye of the Serpent\x0eLip Balm Salve\x11Oil of Resistance\rJuice of Safu\x10Oil of Sovrameni\x11Corelian Ointment\x12Blue Luck Stone +3\x0cAging Potion\x0cYouth Potion\x0eRefresh Potion\x0bHoly Symbol\x12Devout Holy Symbol\x12Divine Holy Symbol\x13Cure Disease Potion\x15Increase Spell Points\x15Mystic Luck Stone +20\x11Ring of Combat +6\x0cStick Pin +6\x10Eye of Peace + 4\x0eMagic Ring +20\x11Broach of Sneflin\x0fRing of Harmony\x08Sol-Ring\x00\x00\x00\x00\x07Lantern\x11Holy Hand Grenade\rMage Familiar\rMage Familiar\x14Chimes of Dissonance\x05Drums\x04Salt\x06Pepper\x0fField Medic Kit\x00\x11Lute of Shielding\x04Lute\x14Pipes of Enchantment\x05Pipes\x00\x15Gnomish Drinking Song\x07Lullaby\x0fCharmer\'s Flute\x10Flute of Freedom\x04Leap\tOpen Lock\x08Superfly\x0cFlame Spikes\tAdrenalin\x08Fireball\x06Plague\nWaterworld\x0cCosmic Blast\tCharm Foe\x05Phase\nAnnihilate\x0fMajor Charm Foe\rPlane of Fire\x0cThought Lace\nFire Flies\x10Fearful Thoughts\x11Heal Small Wounds\x12Heal Medium Wounds\x11Heal Large Wounds\x0bHeal Wounds\tSoul Bind\x0fMajor Soul Bind\x07Sandman\rPuppet Master\x0bRevive Dead\x06Banish\x05Death\x0cMulti Mutiny\x11Creature Summon 1\x11Creature Summon 2\x11Creature Summon 3\x11Creature Summon 4\x11Creature Summon 5\x11Creature Summon 6\x10Lightning Strike\tOgre Hide\tAcid Bath\x0eBall Lightning\x0bFog of Doom\x00\x00\x06\x1c\x00\xc8\x06Potion\x06Potion\x06Potion\x06Potion\x06Potion\x06Potion\x06Potion\x06Potion\x06Potion\x06Potion\x06Potion\x06Potion\x06Potion\x06Potion\x06Potion\nLuck Stone\nLuck Stone\nLuck Stone\nLuck Stone\nLuck Stone\nLuck Stone\nLuck Stone\nLuck Stone\x04Ring\x04Ring\x04Ring\x04Ring\x04Ring\x04Ring\x04Ring\x04Ring\x04Ring\x04Ring\x04Ring\x04Ring\x04Ring\x08Necklace\x08Necklace\x08Necklace\x08Necklace\x08Necklace\x08Necklace\x08Necklace\x08Necklace\x08Necklace\x08Necklace\x08Necklace\x08Necklace\x08Necklace\x08Necklace\x08Necklace\x08Necklace\tMetal Key\nBrass Keys\x08Iron Key\x04Book\x04Book\x04Book\x04Book\x05Prism\x04Cane\x04Book\x14Crown of Safe Return\x0fHeavy Brass Key\x0cSkeleton Key\x08Necklace\x05Tools\x05Tools\x05Tools\x05Tools\x04Book\x04Ring\x04Belt\x04Belt\x06Quiver\x06Quiver\x06Quiver\x06Quiver\x06Quiver\x06Quiver\x06Quiver\x06Potion\x06Potion\x06Potion\x06Potion\x06Potion\x06Potion\x06Potion\x13Foul Smelling Cream\x0cTroll Statue\x0cSnake Statue\rDragon Statue\nMetal Mask\tIon Stone\x04Horn\x0bScroll Case\x0bScroll Case\x0bScroll Case\nMetal Mask\nCloth Mask\x0cLeather Mask\nMetal Mask\x0cLeather Mask\x03Rod\x03Rod\x05Staff\x05Staff\x07Scepter\x07Scepter\x07Scepter\x06Broach\x06Broach\x06Broach\x06Broach\x06Broach\x05Salve\tOil Flask\x0bJuice Flask\tOil Flask\x08Ointment\nLuck Stone\x06Potion\x06Potion\x06Potion\x0bHoly Symbol\x0bHoly Symbol\x0bHoly Symbol\x06Potion\x06Potion\x15Mystic Luck Stone +20\x04Ring\x0cStick Pin +6\x10Eye of Peace + 4\x04Ring\x11Broach of Sneflin\x04Ring\x08Sol-Ring\x00\x00\x00\x00\x07Lantern\tIron Ball\x05Raven\x03Cat\x06Chimes\x05Drums\x04Salt\x06Pepper\x03Box\x00\x04Lute\x04Lute\x05Pipes\x05Pipes\x00\tParchment\tParchment\x0cWooden Flute\x0bBrass Flute\x06Scroll\x06Scroll\x06Scroll\x06Scroll\x06Scroll\x06Scroll\x06Scroll\x06Scroll\x06Scroll\x06Scroll\x06Scroll\x06Scroll\x06Scroll\x06Scroll\x06Scroll\x06Scroll\x06Scroll\x06Scroll\x06Scroll\x06Scroll\x06Scroll\x06Scroll\x06Scroll\x06Scroll\x06Scroll\x06Scroll\x06Scroll\x06Scroll\x06Scroll\x06Scroll\x06Scroll\x06Scroll\x06Scroll\x06Scroll\x06Scroll\x06Scroll\x06Scroll\x06Scroll\x06Scroll\x06Scroll\x00\x00\x07~\x00\xc8\x00\x06Dagger\x06Dagger\x08Sold Out\x06Dagger\x06Dagger\x06Dagger\x06Dagger\x06Dagger\x06Dagger\tLongsword\tLongsword\tLongsword\tLongsword\tLongsword\tLongsword\tLongsword\tLongsword\tLongsword\tLongsword\nBroadsword\nBroadsword\nBroadsword\nBroadsword\x10Two Handed Sword\x10Two Handed Sword\x10Two Handed Sword\x10Two Handed Sword\x10Two Handed Sword\x10Two Handed Sword\x10Two Handed Sword\x08Scimitar\x08Scimitar\x08Scimitar\x08Scimitar\x08Scimitar\x08Scimitar\x04Mace\x04Mace\x04Mace\x04Mace\x04Mace\x04Mace\x04Mace\x08Nunchuka\x08Nunchuka\x08Nunchuka\x08Nunchuka\x08Nunchuka\x08Nunchuka\x08Nunchuka\x08Nunchuka\x08Jo Stick\x08Jo Stick\x08Jo Stick\x08Jo Stick\x08Jo Stick\x08Jo Stick\x08Jo Stick\x0cMorning Star\x0cMorning Star\x0cMorning Star\x0eThrowing Stars\x0cMorning Star\x0cMorning Star\x05Flail\x05Flail\x05Flail\x05Flail\x05Flail\x05Flail\tTip Sword\tTip Sword\tTip Sword\tTip Sword\x0bShort Sword\x0bShort Sword\x0bShort Sword\x0bShort Sword\x0bShort Sword\x0bShort Sword\x07War Axe\x07War Axe\x07War Axe\x07War Axe\x07War Axe\x07War Axe\x0eThrowing Stars\x0eThrowing Stars\x0cThrowing Axe\x0cThrowing Axe\x0cThrowing Axe\tBattleaxe\tBattleaxe\tBattleaxe\tBattleaxe\tBattleaxe\tBattleaxe\rQuarter Staff\rQuarter Staff\rQuarter Staff\rQuarter Staff\rQuarter Staff\rQuarter Staff\x03Bow\x03Bow\x03Bow\x03Bow\x03Bow\x05Darts\x04Dart\x04Dart\x04Dart\x04Dart\x05Staff\x05Staff\x05Staff\x05Staff\x05Staff\x05Staff\x05Spear\x05Spear\x05Spear\x05Spear\x05Spear\x04Club\x04Club\x04Club\x05Arrow\x05Arrow\x05Arrow\x05Arrow\x05Arrow\x05Arrow\x05Arrow\x05Staff\x0cStone Hammer\tStone Axe\nWar Hammer\nWar Hammer\x08Pike Axe\x08Pike Axe\x07Halberd\x07Halberd\x10Throwing Daggers\x10Throwing Daggers\x10Throwing Daggers\x0fThrowing Hammer\x0fThrowing Hammer\x0fThrowing Hammer\x0fThrowing Hammer\rBattle Hammer\rBattle Hammer\rBattle Hammer\rBattle Hammer\x0cBag of Rocks\x0fBag of Boulders\x08Crossbow\x08Crossbow\x08Crossbow\x08Crossbow\x08Crossbow\x06Dagger\x06Dagger\x08Scimitar\nWar Hammer\x03Bow\tLongsword\x0cMagic Hammer\x08Shuruken\x05Sling\x0eThrowing Knife\x03Axe\x05Sword\x05Sword\x0fThrowing Hammer\nLong Sword\nLong Sword\tBull Whip\tBull Whip\tBull Whip\tBull Whip\tBull Whip\x0bShort Sword\x0bShort Sword\x0bShort Sword\x0bShort Sword\x0bShort Sword\rFlaming Arrow\x0cFrozen Arrow\x06Rapier\x06Rapier\x03Bow\x03Net\tLongsword\tLongsword\x10Cheters Blade +8\rQuarter Staff\x0cMagic Hammer\x06Dagger\x00\x00\x0c\xd4\x00\xc8\x00\x06Dagger\x16Dagger of Shielding +2\tDagger -5\x11Dagger of Styx +2\x18Dagger of Penetration +2\x08Sting +3\x17Dagger of Anti Magic +1\x13Dagger of Spells +1\x0fFrozen Viper +2\tLongsword\x0cLongsword +1\x0cLongsword +2\x0cLongsword +3\rFlameheart +2\rFrostblade +2\x16Sword of Resistance +2\x1aLongsword of Protection +2\x19Sword of No Redemption -2\x19Sword of the Lost Soul -3\nBroadsword\rBroadsword +1\rBroadsword +2\x19Penetration Broadsword +2\x10Two Handed Sword\x13Two Handed Sword +1\x13Two Handed Sword +2\x19Two Hand Electro Sword +2\x16Sword of The Voltar +2\x16Sword of Ill Repute -2\x13Sword of Defense +1\x08Scimitar\x0bScimitar +1\x0bScimitar +3\x14Scimitar of Speed +2\x17Scimitar of Trickery -2\x16Scimitar of Dodging +2\x04Mace\x07Mace +1\x07Mace +2\x16Mace of Destruction +3\rNethermace +2\x17Mace of Evil Heroism -2\x15Mace of Resistance +2\x08Nunchuka\x0bNunchuka +1\x0bNunchuka +2\x14Nunchuka of Speed +2\x18Nunchuka of Dexterity +2\x16The Sleeping Dragon -2\x11The Four Winds +4\x16Nunchucka of Kanfir +3\x08Jo Stick\x0bJo Stick +1\x0bJo Stick +2\x14Jo Stick of Speed +2\x19Jo Stick of Protection +2\x14Jo Stick of Rygar +4\x16Jo Stick of Tragedy -3\x0cMorning Star\x0fMorning Star +2\x0fMorning Star +4\x0eThrowing Stars\x1aMorning Star of Defense +2\x17Morning Star of Pain -2\x05Flail\x08Flail +2\x15Flail of Cat Tails +4\x10Flail of Doom +5\x13Flail of No Hope -3\x19Flail of Devilish Dare +4\tTip Sword\x16Tip Sword of Stench -2\x16Sword of The Powers +4\x18Penetration Tip Sword +2\x0bShort Sword\x17Short Sword of Speed +2\x0eShort Sword +3\x19Short Sword of Defense +2\x14Sword of the Omen -3\x18Sword of Regeneration +2\x07War Axe\nWar Axe +1\nWar Axe +2\nWar Axe +3\x16War Axe of Weakness -2\x16War Axe of Strength +2\x11Throwing Stars +1\x10Biting Vipers +1\x0cThrowing Axe\x19Throwing Axe of Sketch +1\x0fThrowing Axe +2\tBattleaxe\x0cBattleaxe +1\x14Battleaxe of Varg +2\x18Battleaxe of Strength +2\x0cBattleaxe +3\x15Battleaxe of Death -2\rQuarter Staff\x10Quarter Staff +1\x12Staff of Merlin +3\x10Quarter Staff +2\rQuarter Staff\x10Quarter Staff +3\x03Bow\x0fPerrin\'s Eye +3\x10Bow of Thumbs -3\x12Bow of Shalomar +2\x06Bow +1\x05Darts\x15Dart of Hornet\'s Nest\rDart of Frost\x15Dart of Mental Terror\x0eDart of Poison\x0eBattlestaff +4\x16Staff of Protection +2\x12Staff of Spells +2\x15Staff of FireBalls +1\x12Staff of Stones +2\x14Staff of Missiles +1\x05Spear\x08Spear +1\x14Spear of Piercing +2\x11Spear of Might +3\x1aSpear of Wondrous Might +5\x04Club\x07Club +2\x14Club of Pummeling +4\x13Arrow of Saphron +3\x10Arrow of Seeking\x12Arrow of Lightning\x0eArrow of Death\rFlaming Arrow\x0bArrow Storm\x1aExploding Arrow of Antioch\x05Staff\x0cStone Hammer\tStone Axe\nWar Hammer\rWar Hammer +1\x08Pike Axe\x0bPike Axe +1\x07Halberd\nHalberd +1\x10Throwing Daggers\x13Throwing Daggers +1\x17Poison Throwing Daggers\x0fThrowing Hammer\x12Throwing Hammer +1\x12Throwing Hammer +2\x12Throwing Hammer +3\rBattle Hammer\x10Battle Hammer +1\x10Battle Hammer +2\x10Battle Hammer +4\x0cBag of Rocks\x0fBag of Boulders\x08Crossbow\x0cCrossbow + 2\x12Crossbow of Thumbs\x0cDeath Dealer\x0bCrossbow +2\tDagger +1\x0fStormbringer +5\rHoly Venom +6\rWar Hammer +5\x13Bow of Champions +4\x18Sword of the Paladins +4\x11Hammer of Thor +7\x08Shuriken\x13Sling of Bullets +3\x11Throwing Knife +5\x12Deaths Head Axe +4\x17Blade of the Underworld\x15Blade of Blackpool +5\x0eDumbfounder +3\x0fCobra Strike +4\x0cExcalibur +7\x0cBull Whip +1\x0cBull Whip +4\rSnake Bite +3\x0eRapier Whip +6\x10Crack of Doom +7\nOrcrist +6\x0cGlamdring +6\nBalthog +7\rShadowhawk +7\rSilvergrip +7\tFirestorm\tSnowstorm\x06Rapier\x15Rapier of the Wind +4\x13Bow of the Elves +6\x03Net\x0fSavage Winds +9\x0eSteel Tooth +7\x10Cheters Blade +8\x0fWarped Staff +8\x14Hammer of Giants +10\x0fFlame Dancer +9\x00\x00\x04\xdd\x00\xc8\x04Robe\x13Robe of The Magi +2\x15Robe of Enchanters +1\x16Robe of Many Favors +1\x15Robe of Protection +1\x18Robe of Spell Storing +1\rRobe of Speed\x10Robe of Strength\x18Robe of Vulnerability -2\rLeather Armor\x10Leather Armor +3\x10Leather Armor +6\x10Leather Armor +9\x16Leather of Strength +9\x16Leather of Darkness -2\x0bChain Armor\x0eChain Armor +3\x16Mithril Chain Armor +6\x10Volted Chain + 9\x0cBanded Armor\x0fBanded Armor +3\x0fBanded Armor +6\x18Armor of Imprisonment -3\x0bPlate Armor\x0ePlate Armor +3\x10Mithril Plate +6\x0fPlate Armor +13\x18Plate of Imprisonment -3\x0ePlate Armor +9\x1aPlate Armor of Magicks +13\x1bPlate Armor of Scorland +12\x18The Chastised Warrior -5\x0cGauntlets +8\rGauntlets +12\rGauntlets +16\rGauntlets +24\rGauntlets +30\x16Gauntlets of The Void \x0fCloak of Fog +3\x14Cloak of the Magi +6\x17Cloak of Small Folk +12\x19Cloak of the Outcasts +12\x16Cloak of Protection +6\x0fShadow Cloak +9\x12Cloak of Light +10\x15Cloak of Regeneration\x11Cloak of Power +5\x17The Whistling Winds +10\x14Concealer of Lies +8\x14Cover of Darkness -3\x0cPadded Cloak\x0cPadded Armor\x0fPadded Armor +9\x18Cape of Everlasting Life\x17Emerald Alloy Plate +10\x13Robe of Tranquility\x0cGauntlets +3\x11Mithril Plate +20\x0fSpirit Cloak +6\x00\x00\x00\x00\x00\x00\x00\x00\x00\x00\x00\x00\x00\x00\x00\x00\x00\x00\x00\x00\x00\x00\x00\x00\x00\x00\x00\x00\x00\x00\x00\x00\x00\x00\x00\x00\x00\x00\x00\x00\x00\x00\x00\x00\x00\x00\x00\x00\x00\x00\x00\x00\x00\x00\x00\x00\x00\x00\x00\x00\x00\x00\x00\x00\x00\x00\x00\x00\x00\x00\x00\x00\x00\x00\x00\x00\x00\x00\x00\x00\x00\x00\x00\x00\x00\x00\x00\x00\x00\x00\x00\x00\x00\x00\x00\x00\x00\x00\x00\x00\x00\x00\x00\x00\x00\x00\x00\x00\x00\x00\x00\x00\x00\x00\x00\x00\x00\x00\x00\x00\x00\x00\x00\x00\x00\x00\x00\x00\x00\x00\x00\x00\x00\x00\x00\x00\x00\x00\x00\x00\x00\x00\x00\x02\xb9\x00\xc8\x04Robe\x04Robe\x04Robe\x04Robe\x04Robe\x04Robe\x04Robe\x04Robe\x04Robe\rLeather Armor\rLeather Armor\rLeather Armor\rLeather Armor\rLeather Armor\rLeather Armor\x0bChain Armor\x0bChain Armor\x0bChain Armor\x0bChain Armor\x0cBanded Armor\rBanded Armor \x0cBanded Armor\x0cBanded Armor\x0bPlate Armor\x0bPlate Armor\x0bPlate Armor\x0bPlate Armor\x0bPlate Armor\x0bPlate Armor\x0bPlate Armor\x0bPlate Armor\x0bPlate Armor\tGauntlets\tGauntlets\tGauntlets\tGauntlets\tGauntlets\tGauntlets\x05Cloak\x05Cloak\x05Cloak\x05Cloak\x05Cloak\x05Cloak\x05Cloak\x05Cloak\x05Cloak\x05Cloak\x05Cloak\x05Cloak\x05Cloak\x0cPadded Armor\x0cPadded Armor\x05Cloak\x0bPlate Armor\x04Robe\tGauntlets\rMithril Armor\x04Robe\x00\x00\x00\x00\x00\x00\x00\x00\x00\x00\x00\x00\x00\x00\x00\x00\x00\x00\x00\x00\x00\x00\x00\x00\x00\x00\x00\x00\x00\x00\x00\x00\x00\x00\x00\x00\x00\x00\x00\x00\x00\x00\x00\x00\x00\x00\x00\x00\x00\x00\x00\x00\x00\x00\x00\x00\x00\x00\x00\x00\x00\x00\x00\x00\x00\x00\x00\x00\x00\x00\x00\x00\x00\x00\x00\x00\x00\x00\x00\x00\x00\x00\x00\x00\x00\x00\x00\x00\x00\x00\x00\x00\x00\x00\x00\x00\x00\x00\x00\x00\x00\x00\x00\x00\x00\x00\x00\x00\x00\x00\x00\x00\x00\x00\x00\x00\x00\x00\x00\x00\x00\x00\x00\x00\x00\x00\x00\x00\x00\x00\x00\x00\x00\x00\x00\x00\x00\x00\x00\x00\x00\x00\x00\x02\xdc\x00\xc8\x04Helm\x04Helm\x04Helm\x04Helm\x04Helm\x04Helm\x04Helm\x04Helm\x04Helm\x04Helm\x04Helm\x04Helm\x0bWizards Cap\x0bWizards Cap\x0bWizards Cap\x0bWizards Cap\x0bWizards Cap\x0bWizards Cap\x06Shield\x06Shield\x06Shield\x06Shield\x06Shield\x06Shield\x06Shield\x06Shield\x06Shield\x06Shield\x06Shield\x06Shield\x06Shield\x06Shield\x06Shield\x06Gloves\tGauntlets\x06Gloves\tGauntlets\tGauntlets\tGauntlets\x06Gloves\x06Gloves\x06Gloves\tGauntlets\tGauntlets\tGauntlets\tGauntlets\tGauntlets\tGauntlets\tGauntlets\x04Helm\x0cLeather Helm\x0bSilk Gloves\x0eLeather Gloves\x0cChain Gloves\x05Boots\x05Boots\x05Boots\x05Boots\x05Boots\x05Boots\x06Shield\x0fSteel Gauntlets\x0bLeather Cap\x06Shield\x06Shield\x06Shield\x06Shield\x06Shield\x06Shield\x06Shield\x10Quiver of Arrows\x0bSilk Gloves\x04Helm\tGauntlets\x00\x00\x00\x00\x00\x00\x00\x00\x00\x00\x00\x00\x00\x00\x00\x00\x00\x00\x00\x00\x00\x00\x00\x00\x00\x00\x00\x00\x00\x00\x00\x00\x00\x00\x00\x00\x00\x00\x00\x00\x00\x00\x00\x00\x00\x00\x00\x00\x00\x00\x00\x00\x00\x00\x00\x00\x00\x00\x00\x00\x00\x00\x00\x00\x00\x00\x00\x00\x00\x00\x00\x00\x00\x00\x00\x00\x00\x00\x00\x00\x00\x00\x00\x00\x00\x00\x00\x00\x00\x00\x00\x00\x00\x00\x00\x00\x00\x00\x00\x00\x00\x00\x00\x00\x00\x00\x00\x00\x00\x00\x00\x00\x00\x00\x00\x00\x00\x00\x00\x00\x00\x00\x00\x00\x00\x00\x00\x00\x05\xd4\x00\xc8\x04Helm\x0fHelm of Pain -1\x10Helm of Might +2\x15Helm of True Sight +3\x12Helm of Defense +5\x07Helm +4\x07Helm +3\x12Helm of Kranack +4\x16Helm of The Vikings +5\x10Helm of Speed +4\x12Helm of Heroism +6\x1aWinged Helm of Zephron +10\x0cDunce Cap -6\x10Cap of Spells +2\x12Cap of The Magi +5\x14Cap of Protection +6\x16Cap of Regeneration +3\x11Cap of Defense +6\x06Shield\tShield +3\x1aShield of Vulnerability -1\x0eIron Scales +4\tShield +5\tShield +6\x17Shield of Hawk Sight +6\x10Dragon Breath +5\x15Shield of Shields +12\x15Shield of Healing +10\x1aShield of the Blue Oxen +4\x14Shield of Magicks +3\x19Shield of Happenstance +6\x19Shield of Entanglement -2\x17Shield of Protection +1\x15Gloves of Wizardry +2\x18Gloves of The Seasons +8\x19Gloves of The Huntsman +4\x0fPlate Gauntlets\x16Gauntlets of Damage +1\x11Fists of Steel +1\x16Gloves of Trickery -15\x15Gloves of Trickery +2\x19Gloves of Regeneration +1\x16Gauntlets of Regula +4\x14Gauntlets of Pain -2\rGorgon Kin -3\x16Gauntlets of Combat +2\rTiger Paws +4\x10Dragons Claws +8\x19Gauntlets of Deception -2\x08Iron Cap\x0bLeather Cap\x0bSilk Gloves\x0eLeather Gloves\x0cChain Gloves\rLeather Boots\x10Steel Shod Boots\x13Boots of Quick Step\x0eBoots of Quiet\x10Boots of Balance\x0fCombat Boots +2\x15Deaths Head Shield +2\x16Fistful of Missiles +7\x13Maliki\'s Revenge +8\x17Emeral Alloy Shield +12\x17Band of the Unicorn +15\x15Sir Robbins Shield -6\x0fSaurons Bane +9\rHellsbane +11\x0fRuby Shield +10\x13Hells Caretaker +15\x10Quiver of Arrows\x0eHands of Magic\x10Helm of Feona +7\x0fRazor Claws + 4\x00\x00\x00\x00\x00\x00\x00\x00\x00\x00\x00\x00\x00\x00\x00\x00\x00\x00\x00\x00\x00\x00\x00\x00\x00\x00\x00\x00\x00\x00\x00\x00\x00\x00\x00\x00\x00\x00\x00\x00\x00\x00\x00\x00\x00\x00\x00\x00\x00\x00\x00\x00\x00\x00\x00\x00\x00\x00\x00\x00\x00\x00\x00\x00\x00\x00\x00\x00\x00\x00\x00\x00\x00\x00\x00\x00\x00\x00\x00\x00\x00\x00\x00\x00\x00\x00\x00\x00\x00\x00\x00\x00\x00\x00\x00\x00\x00\x00\x00\x00\x00\x00\x00\x00\x00\x00\x00\x00\x00\x00\x00\x00\x00\x00\x00\x00\x00\x00\x00\x00\x00\x00\x00\x00\x00\x00\x00\x00@\xbb\x00\xc8\x00\rA fine blade.KProbably one of the most lovely weapons of its kind, truly a valuable item.JThis weapon is truly cursed. It is so foul as to heal its intended victim.\x86After being hammered out this blade was quenched in the waters of that infamous nether river.  It is especially deadly against demons.3A weapon enchanted with the most powerful of magic.~A fabled weapon thought only to exist in legend until now. The possessor of this weapon can truly be counted among the worthy.?Arcane powers help make this weapon a worthy aid against magic.nThis item channels magical energy most efficiently, giving its owner a greater ability to invoke arcane power.KForged in the times of the Dragon Wars as a potent defense against dragons.EThis heavy and crude weapon is preferred by none but the common thug.,A fine blade for the experienced adventurer.DA beautiful weapon that is a rare find even in the tales of legends.bEasily the most beautiful weapon of its kind.  This blade speaks of lost kingdoms and battles won.jA fiery blade, able to inflict damage on creatures normally untouched but by the most powerful of weapons.LTruly a gift from the gods, for this weapon can freeze any being it strikes.3The warrior behind this sword need fear no sorcery.MAs if with a mind of its own this sword fends off attacks against its master._Each drop of enemies\' blood drawn with this dire weapon is a curse on the house of the wielder.aThe warrior who takes this blade into battle casts his soul in with fell and unpredictable tides.8A cumbersome weapon that looks far better at a distance.,A gleaming weapon of superior craftsmanship.EA weapon fit for a lord. This weapon will bring many a jealous stare.{Once thought to be buried with Drahkma the Merciless, this powerful weapon\'s true location will now spread like wildfire.  4It takes a true brute to use a weapon of this girth.\x80This weapon would seem large and cumbersome if it wasn\'t for the fact that even in the hands of a novice, this weapon is deadly.UTruly a mighty weapon. No robber knight has ever dreamed of possessing such a weapon.fA weapon forged by the god Xaphini for his mortal son.  Alas, he is long dead, but the magic lives on.yThe sword of a fearsome warrior.  If you are capable of wielding it, your foes will fall like blades of grass before you.CDeath and misfortune ever follow the owner of this wicked artifact.DThe lot of this sword\'s owner is to come away from battle unscathed.DPreferred by the crafty, this weapon is true only to a brave master.1A magical feel permeates this blade\'s fine lines.EAn awesome weapon preferred by the skilled.  It is quite a rare find.WThe preferred weapon of the rouge. This weapon will please the pickiest of pickpockets.[A foul curse brought about by an evil druid so long ago. Even the gods do not remember why.FThis mystic weapon gives total protection from normal missile weapons.BHeavy but effective, this weapon is preferred by the holy warrior.>The gods have smiled on this beautiful dealer of mortal death.BPrized by the most noble of priests, this weapon is a great prize.VThis weapon is extremly powerful and has always been in the hands of evil.  Until now!2A bane to all those of a less than earthly origin.[This foul and licentious weapon will never be true to the one who relies upon it in battle.ZThe innate power of this weapon will dispel the power of magiks hurled against its master.BMade of polished teak, this weapon is useable only by the skilled.JShining studs appear to the untrained eye to be this weapon\'s only virtue.EA mighty weapon in the hands of a monk, this weapon is prized by all.LNever has a weapon of its kind been seen until now.  A monk\'s dream enacted.PThis weapon\'s master moves with great skill and stikes with superhuman accuracy.vWhen one calls upon the powers of this item, they are nowhere to be found.  They are ever-present when no need exists.iThis device moves with the swiftness and subtlety of a zephyr, yet strikes with the force of a hurricane.\'The master of this weapon walks unseen.@A specialized weapon effective only in the hands of the skilled.@A specialized weapon effective only in the hands of the skilled.JBoth strong and light, this weapon can be deadly in the hands of a master.ZThe speed of the gazelle and the quickness of the viper will aid the wielder of this item.eThis wonderous item is better than a suit of armor.  To parry any blow will be your greatest success.ZThe speed of the gazelle and the quickness of the viper will aid the wielder of this item.LThis vile black stick makes your enemies quicker and yourself more sluggish.[A crude, iron ball with spikes. This weapon is as difficult to wield as it is to gaze upon.8Light in the hand, this weapon can deal a powerful blow.sFeared by all, this is a very deadly weapon.  Legend says that it was created by a god as a gift to his mortal son.fThese ancient weapons can be thrown with sufficient force to cause great damage twice per melee round.\x95This amazing device consists of a ball and chain which, aside from being a powerful weapon, is somehow capable of deflecting your opponent\'s attacks.yAaagh!  Sharp pains shoot through your arms as you try to bring this weapon to bear.  What diabolical force created this?-A poorly made flail of limited worth and use.FThis weapon seems to respond to mere thoughts.  It is indeed valuable._A cute name, but that is where the pleasantries end.  This weapon is feared by even its master.yThe adventurer who masters this artifact need not sleep light.  Even to look its possessor in the eye takes a mighty foe.ACertain doom is the fate of he who takes up this weapon in anger.DWoe be the netherbeast to confront a foe who brandishes this weapon.7A combat-specialized weapon with an armor piercing tip.kThe olfactory emissions produced by this item cause its wielder to choke and gag whenever need is greatest.DA treasure of unparalleled beauty and potency.  Handle it with care.[A one-of-a-kind weapon, it is far more powerful than it looks.  It can penetrate any armor.%A cheap alternative to the bare fist.RValued by the rouge, this weapon is a god-send in a cramped, fighting environment.;A small weapon that packs a punch as well as a hefty price.QFor the rogue with a fear of pain, this blade offers a measure of extra security.yThis small blade brings visions of horrible destruction.  Before the end of the first new moon they invariable come true.^Something in the metal of this weapon causes flesh to heal so fast that one can see it happen.gPreferred by stout fighters, this heavy and clumsy weapon is most effective -- if you can hit your foe.>A well-balanced axe, this weapon is of obvious magical origin.:A rare find indeed, this weapon is a most powerful friend.gFrom the treasure chambers of a god, this mighty axe is capable of hewing down the most mighty of foes.;This cursed weapon must be from the bowels of hades itself.YThe muscles of this weapon\'s owner bulge with the forces of stone and the power of earth.ALight metal stars that find their target and deliver their sting.CA poisonous bite is the reward for any who fall prey to the vipers.)Handy in a pinch, but of limited quality.\\A most interesting weapon, it returns to the hand of its wielder as if by magic when thrown.EA beautifully balanced weapon from the forge of a superior craftsman.HHeavy but cheap, this is the weapon preferred by the common man-at-arms.,A heavy weapon, but of fine make to be sure.NA beautiful weapon, it is commonly found with officers of the Comair infantry.HA mighty weapon! He who can brag ownership of this weapon is a hard man.TMight on the hoof.  Nobody dares cross the path of he who wields this mighty weapon.NFaaaughh!!  What sick wizardry is this?  It inflicts damage on the wrong side!BA sturdy shaft of oak.  Inexpensive, but you get what you pay for.DA single magical rune imbues this shaft of wood with mystical power.gThe surface of this lengthy staff pulses with long-forgotten energy, placed there by a master magician.4A mighty weapon for those who are not stout of body.-A light length of wood suitable for sparring.)A fine weapon of superior make and magic.QMade of fine wood, this bow will be of great use in the hands of a great warrior.[The sight of the hawk will guide your shot to the target every time if this is your weapon.=A criminal creation is this.  Somewhere a vile wizard laughs.\x8eThis mystical weapon was thought to have been lost when the golden elves were banished from the Realmz. That does not now seem to be the case.7A handy weapon for dealing with foulness at a distance.\x000Woe is the creature stung by this sinister dart.iContemplate the chilling prick of this cold-hearted weapon. It brings a shiver to the spine of the world.hA small, but sometimes useful item.  This seemingly simple dart can sunder the mind of those it strikes.\\A truly vile idea to turn one of the most harmless of weapons into one of the most powerful.XThis ancient weapon\'s origin remains unknown.  Its creator must have been mighty indeed.WFavored with a mage of the more paranoid sort, this beautiful piece is a valuable ally.\\A weapon for the aggressive of mind and body, this powerful weapon is worth a king\'s ransom.jThis staff casts fireballs just as the spell.  Any class can use it and the power level is random per use.PThis staff casts power level 7 Brim Stones as the priest spell of the same name.PThis staff acts as a Staff +1 except that it can cast Power Level 7 Magic Darts."A sturdy shaft with a nasty point.5A fine weapon that is as deadly as it is easy to use.4A marvelous spear believed stolen by Theleb K\'aarna.xWielded by the proud defenders of Heshimite.  The haughty goddess has blessed this mighty weapon with the will to fight.CThe name tells all. This is a legendary weapon even among the gods.VHeavy and cumbersome.  This is the preferred weapon of those that rely on brute force.cThis magically-enhanced club is a delight to wield, even for those that normally shun such weapons.VA mighty weapon that does double normal club damage in addition to its magical damage.CUsed in the Saphrinie wars, these wicked shafts deal a mighty blow.ZIts name implies its worth.  Though no more powerful than a normal arrow, it never misses.GA shocking surprise is in store for the recipient of this tricky arrow.JMerely nocking this arrow is enough to bring fear into the hearts of many.)A normal bolt that sports a wicked flame.dThese magical shafts split in mid-flight, causing damage from each of the numerous smaller warheads.DEnemies will flee before the destructive power of these projectiles.MA knotted and gnarled length of wood, treated and cured against the elements.8A crude weapon commonly used by primitives of all sorts.?A heavy but effective weapon for dealing a might-crushing blow.6An effective weapon for dealing a might-crushing blow.FA large and cumbersome weapon. It does great damage if used correctly.FA large and cumbersome weapon. It does great damage if used correctly.FA large and cumbersome weapon. It does great damage if used correctly.FA large and cumbersome weapon. It does great damage if used correctly.FA large and cumbersome weapon. It does great damage if used correctly.GWell-balanced daggers that are designed to be thrown by a skilled hand.TWell-balanced daggers that have been enchanted to magically increase their accuracy.@Well-balanced daggers that have been tainted with a vile poison.PWeighted for throwing, this can be a deadly projectile if the target can be hit.ZLighter than a mundane weapon of the same type, this weapon can inflict a staggering blow.hThis item seems to fly on wings with a mind of its own to strike down any who dare approach its wielder.cIf a hammer could swat a fly on the wall at a hundred paces, this hammer would be the one to do it.6A heavy iron head for delivering an even heavier blow.qA tribute to the skill of the smith behind its creation.  It will not fail the warrior who takes it into battle. aThe metal of this weapon vibrates with energy.  Its power will stagger the recipient of its blow.^A hammer of such might can rend the stone of mountains and shake the foundations of the earth.-A dirty leather bag full of fist-sized rocks.\'A huge sack full of giant round stones.4Advanced technology for launching missles in combat.kThe magic and skill behind the creation of this item have given it ability beyond the greatest expectation.XSeek not protection behind a foul weapon such as this.  You shall find naught but death.vThough not enchanted with any magical pluses, this device will do triple normal damage if you can but hit your target.,This weapon fires at double the normal rate.4A simple dagger of fine make, enchanted with magic. aPowerful magic has blessed this dagger to be capable of striking demons and devils a mighty blow.9A divine gift from Yevlin for saving an army of Griffins.$A powerful weapon of unknown origin.\x8eOnly the mightiest and most worthy of archers can claim ownership of this piece.  It retains the skill of champions to guide its master\'s aim.\x82A mystic blade of divine origin.  Its wrath blasts evil from the earth, annihilating any fell creature that dares stand before it.<The weapon of a god.  Is any mortal fit to wield such power?}Many spikes and sharp barbs will litter the ground.  This makes movement a real danger for those who do not watch their step.rA hailstorm of bullets will pour forth from a simple leather sling.  This item is more than it would first appear.\x86A blade without equal.  So finely crafted is this knife that even veteran dwarven weaponsmiths stand back in awe of its craftsmanship.oA wondrous axe you captured from an astreal vault.  Without doubt its former owner thought it safe at the time.PA gift from an old goblin shaman for helping unite Shalutie with his lost tribe.{A mystic weapon of great power.  Its benefits are many, but it does have one negative.  It makes the wielder easier to hit.|This is an amusing weapon indeed when thrown.  Powerful magic will cause it to split in two and strike two adjacent targets.FThough it is disgusting to look upon, it is a mighty weapon in battle.gThe mightiest weapon ever forged by the gods.  Even among the gods it is known as "The Hand of Justice"KMade from fine oiled leather, this whips can strike an enemy at a distance.RA magical oil gives this whip the ability to strike even the most elusive of foes.\xafUnlike most whips this weapon must be used at close range. A deadly venom has been rubbed into the tip of this foul weapon.  The result is pain and death for those it strikes.JA magicaly enchanted diamond embedded in the tip will penetrate any armor.sAn ancient weapon used in the very pits of hell to keep daemon slaves in line.  Few Daemons wish to taste its kiss.[Forged during the age of light, this mighty weapons small size hides its incredible powers.gFew are the foes that will stand against this mighty weapon.  It is capable of casting powerful spells.\x85Forged by Agadordan himself, this evil tyrant of the Abyss has given his weapon such powers as to increase his already mighty powers.QGiving the wielder incredible speed is but one advantage of this beautiful sword.`It appears to be but an ordinary sword of superior craftsmanship.  Appearances can be deceiving.\xb0Invented by a senile fire giant who was attempting to construct a interior heating system, firestorm arrows will blanket an area with flames that persist for up to five rounds.\xd3Legend has it that snowstorm arrows were created by the goddess Icicle, patroness of frostbite, as a gift to a nomadic goblin tribe. Goblins still burn hundreds of icicles in an annual sacrifice of thanksgiving.\xbbThe rapier is a simple, nonmagical weapon. It is light and well balanced, but difficult to use correctly. In the hands of a master it can parry any blow, and strike with incredible speed.vThis fantastic rapier is the true weapon of the master swordsman. It lends its master the speed and grace of the wind.\x00{A non-magical device for the thief and the archer which can be thrown over a victim, making them helpless for a short time.\x00\x00\xd7This weapon was once the weapon of Cheter.  Cheter was an aid to Charon, ferryman over the river Styx.  Cheter was slain while fighting at Charons side battling a powerful demon wishing to cross Styx without paying.=The Warped Staff has the ability to play havoc with the mind.yFound in an ancient crypt by Malicus, he allowed you to capture it as repayment for helping bring his brother to justice.;Few relics can match this dagger in either power or beauty.\x00\x002\xc0\x00\xc8jRenders the imbiber invisible. They may then break away in combat without the enemy getting a free attack.1Will increase the maximum movement during combat.ZMagicaly transforms any blood toxins into water, thus eliminating any poison in the blood.FRenders the imbiber resistant to  any form of heat for a limited time.ERenders the imbiber resistant to any form of cold for a limited time.PRenders the imbiber resistant to any form of chemical damage for a limited time.dGives the imbiber great power.  This will add to damage in combat and ability to move heavy objects.5Increases one of the imbibers attributes permanently.:Causes the imbiber to become poisoned until cured or dead.SWill allow the imbiber and all those within 20 feet to change to a cloud like form.mWill form a magical bubble of air around the imbiber and all those within 20 feet for a short period of time.>The use of this potion will restore a small amount of stamina.?The use of this potion will restore a medium amount of stamina.>The use of this potion will restore a large amount of stamina.@The use of this potion will restore a massive amount of stamina.*Magical protection for the warrior castes.\'Magical protection for theiving castes.%Magical protection for archer castes.\'Magical protection for sorcerer castes.\'Magical protection for priestly castes.$Magical protection enchanter castes.-Magical protection for warrior-wizard castes.!Magical protection for any caste.;Magical protection for those with a fear of strange powers.MThe magical benefit of this finly crafted ring will be twofold to its wearer.jThis powerful item is coveted by wizards with such fervor, seldom will one be found on any but the undead.\'Warm to the touch, welcome to the mind.\'Cool to the touch, welcome to the mind.^This powerful piece will increase the fighting skill and damage done by any non-magical caste.8Magics abound when the user calls upon this ring\'s gift.>Truly a ring for the cowardly, however, it does have its uses.4An aid to fend off attacks of the non-material kind.SThis ring is prized before all others.  Its wearer will heal at an incredible rate.8A cruel fate awaits he who runs afoul of this vile item.SThis ring\'s use is unknown.  It does seem to be magical, but its purpose is hidden.cThis cursed ring will cause the wearer to stumble and trip constantly, making movement a nightmare.XThis beutiful necklace can cast up to Power Level 4 fireballs a limited number of times._This beautiful necklace can cast up to Power Level 5 lightning bolts a limited number of times.PIts wearer may bring back a creature from death by expending one of its charges.NThere is no known use.  It has been legendary since the time of the sundering.\x85A powerful aid against those of the nether regions.  Those so clad shall be at a great advantage agaist those of otherworldly origin.1Rumored to open almost any lock if used properly.DAllows its user and any within 10\' to climb any wall as would a fly.$A piece prized by any magical caste.\x1dAs useful as it is beautiful.@This necklace can impart extra magical energy to magical castes.IA myriad of benefical effects is given to he who dons this magical piece.<A benefit or a curse depending on how one chooses to see it.IRenders its wearer invisible.  Once property of the master rogue himself.KA gift from the goddess Shen to the high enchantress of the Age of Legends.:At first this necklace appears to be valuble,  Hmmmmmph!!!|The wearer of this piece is rendered invincible against normal missiles, first level spells and resistant to normal attacks.\x0bJailers Key\nBrass Keys\x08Iron Key\x10Tome of ShalizarUA compilation of long lost lore.  The reader will gain great insite about the Realmz.\x11Book of Turanians\x14Writ of the Ancients?This mystic device will infuse a spell caster with extra power.FThe power of this cane can imbue a fallen comrade with an unholy life.\x04BookNUsing this magical item will return you to the front gate of the kings castle.\x0fHeavy Brass Key\x0cSkeleton Key\x91Having graced the neck of Selinada, the protector of all true rangers, many of her inate magical abilities will also be bestowed upon the wearer.PThis item was created by the god of rogues.  It will enhance a rogues abilities.PThis item was created by the god of rogues.  It will enhance a rogues abilities.PThis item was created by the god of rogues.  It will enhance a rogues abilities.PThis item was created by the god of rogues.  It will enhance a rogues abilities./Woe is the individual who reads this foul writ.KA favor of the gods, this ring enables the recovery of priceless life lost.YDonning this ordinary looking belt will infuse the wearing with a feeling of great power.wAny ordinary missile will have a hard time finding it\'s mark.  He who dons this fine belt is immune to normal missiles.6A somewhat useful item for those that know of its use.hMany warriors with a disdain for the bow will wear an item such as this merely for its magical benefits.bLoved by the slippery type.  This quiver is favored by the fleet of foot as well as the lethargic.@A valuble item for those that will want to do battle with magic.KHe who falls victim to this foul thing may never come to realise his folly.2This magical device makes everything seem lighter.QA favorite of the gambler, this item comes in handy in both brothels and battles.<This potion will increase the imbiber\'s Brawn.  Permanently!@This potion will increase the imbiber\'s Knowledge.  Permanently!?This potion will increase the imbiber\'s Judgment.  Permanently!>This potion will increase the imbiber\'s Agility.  Permanently!?This potion will increase the imbiber\'s Vitality.  Permanently!>This potion will increase the imbiber\'s Stamina.  Permanently!<This potion will increase the imbiber\'s Brawn.  Permanently!\x0eHealing Cream.\x16A device of summoning.\x16A device of summoning.\x16A device of summoning.;A powerful item. You cannot wear a necklace with this item.\xa6A holy relic of the gnomish religious order of Svenfingali.  This relic was last seen with Neflinsvenliv, a mighty gnomish crusader, who perished on a sacred mission.\x98A powerful item. It can summon an endless supply of minor creatures to fight at your side.  Its enchantment is permanent and will never need recharging.5A magical wrapping that can store up to five scrolls.5A magical wrapping that can store up to five scrolls.5A magical wrapping that can store up to five scrolls.\xabCreated by overlords of the nether regions to aid their troops in battle against demon spawn.  This mask will enhance ones ability to strike mighty blows to nether beasts.\x7fA true rouge is the only one who can where this mystic mask.  It\'s jolly looking nature does not do it\'s massive power justice.bA perminent smell of rot pervades this mask.  Though it smells disgusting, it\'s benefits are vast.ENow you see why you should never play with what you don\'t understand.\x80A foul mask that tears at your brain like hungry ironroot vines.  The total pain makes it impossible to concentrate on anything.hCapable of altering anothers form.  What comes out may not always be easier to handle than what went in!cThe air will fill with crackling magic. Every creature within 100 paces must DRVs. Magic or perish.\x90Can turn any creature into a statue of stone. The mind is not destroyed and the cursed creature often goes mad from boredom over the centuries. OAs any king knows, the way to control a people is to win their heart and minds.iNavigating dark and dank dungeons will be a snap with the power this device gives over your surroundings.cCapable of casting a spell that can steel the very soul from any creature known to walk the Realmz.\x92Though not a powerful weapon in it\'s own right, it gives the wielder a special advantage when dealing with others that are capable of using magic.7This magical broach gives protection in a trio of ways.mThe TREE OF APPOLLO is a life giving force in the Realmz of the gods.  A single leaf can make a powerul gift.bWoe be the reptilian that stands in your way when you have pinned the Serpents Head to your chest.AEvil shall stand aside lest they feel the sting of arcane magics.>When you need a helping claw, activate the Eye of the Serpent."For those stuborn aches and pains.;Coats your throat with a soothing film of anti-magical gel.TGives the thought process a boost. Spell casters gain a huge influx of spell points.~When taken internaly, the oil enhances the metabolic rate allowing the drinker a huge amount of regeneration for a short time.[When placed on the skin, this ointment will make the user immune to normal missile weapons.5A woundrous bauble with more than amazing properties.6This foul tasting liquid will age those that drink it.\x9eThis sweet tasting liquid will cause those that drink it to grow younger. It does have a negative side effect of reducing your maximum stamina a small amount.7Fatigue will melt away like a sugarcube on a rainy day.^A strong religious artifact that can aid one in turning or destroying the undead to your will.^A strong religious artifact that can aid one in turning or destroying the undead to your will.^A strong religious artifact that can aid one in turning or destroying the undead to your will.cThis potion will cure the imbiber of any disease, no matter how foul or infected the victim may be.KA permanent increase in spell points will result from drinking this potion.\x9cThis unique item is a true wonder.  Taken from the dead body of a Vex Witch by "Bolo the Angry".  A powerful ogre who found the witch dead of natual causes.,A powerful ring that will aid you on combat.\x88Formed when the essense of two litch were trapped inside.  Their eternal power, through trapped inside will aid those that wear the pin.\x96A magical glass that will let you see your enemies future moves. The result is that you can dodge your enemy while at the same time predict his moves.\x93This ring will resist both normal and magical attacks.  Wearing it makes one highly resistant to harmful magical affects as well as normal weapons.^This broach will resist magic.  Wearing it makes one highly immune to harmful magical affects.IWearing this ring makes the entire party resistant to charm based spells.fCapable of storing the spell "Solor Winds" this ring can help blast your enemies from the battlefield.\x00\x00\x00\x00\x00\xb3\'First shalt thou take out the Holy Pin. Then, shalt thou count to three. Then lobbest thou thy Holy Hand Grenade towards thy foe, who, being naughty in My sight, shall snuff it.\'{For the Sorcerer castes these pets serve to increase a beginning mage\'s spell points and offer a little power of their own.|For the Enchanter castes these pets serve to increase a beginning mage\'s spell points and offer a little power of their own.\xb7Created by a past Masterbard, these chimes create a dissonance extremely destructive to demonic and undead creatures, who may turn against their own kind or be destroyed by the sound.\x86Though not magical, the rhythmic beating of these drums weakens the effect of charm spells against the party. usable only by the Bard.OTable Salt, useful for curing meat and perhaps throwing in the face of enemies.IThis powerful spice, if thrown at the enemy, may cause bouts of sneezing.pFilled with bandages and powerful healing herbs, this field medic kit is healing aid for the non-magical castes.\x00wThis powerfully enchanted lute not only provides extra spell points, but protects its minstrel from third level spells.\x8bAid to the minstrel, this instrument will serve as slight protection against magic, and its sound will increase a party\'s morale in battle.tA tool of potent magic, these pipes, when played by a skilled Bard, will cause confusion in the minds of your enemy.IThough not magical, these pipes serve to increase a minstrels\' abilities.\x00\x15Gnomish Drinking Song\x13Scroll of \'Lullaby\'sThis wooden flute is imbued with a powerful summoning spell which will charm snakes to your side to fight with you.iThe Flute of Freedom is magically enhanced to free those who hear its tones from hurtful magical effects.\x10Scroll of \'Leap\'\x15Scroll of \'Open Lock\'\x14Scroll of \'Superfly\'\x18Scroll of \'Flame Spikes\'\x15Scroll of \'Adrenalin\'\x14Scroll of \'Fireball\'\x12Scroll of \'Plague\'\x16Scroll of \'Waterworld\'\x18Scroll of \'Cosmic Blast\'\x15Scroll of \'Charm Foe\'\x11Scroll of \'Phase\'\x16Scroll of \'Annihilate\'\x1bScroll of \'Major Charm Foe\'\x19Scroll of \'Plane of Fire\'\x18Scroll of \'Thought Lace\'\x16Scroll of \'Fire Flies\'\x1cScroll of \'Fearful Thoughts\'\x1dScroll of \'Heal Small Wounds\'\x1eScroll of \'Heal Medium Wounds\'\x1dScroll of \'Heal Large Wounds\'\x17Scroll of \'Heal Wounds\'\x15Scroll of \'Soul Bind\'\x1bScroll of \'Major Soul Bind\'\x13Scroll of \'Sandman\'\x19Scroll of \'Puppet Master\'\x17Scroll of \'Revive Dead\'\x12Scroll of \'Banish\'\x11Scroll of \'Death\'\x18Scroll of \'Multi Mutiny\'\x1dScroll of \'Creature Summon 1\'\x1dScroll of \'Creature Summon 2\'\x1dScroll of \'Creature Summon 3\'\x1dScroll of \'Creature Summon 4\'\x1dScroll of \'Creature Summon 5\'\x1dScroll of \'Creature Summon 6\'\x1cScroll of \'Lightning Strike\'\x15Scroll of \'Ogre Hide\'\x15Scroll of \'Acid Bath\'\x1aScroll of \'Ball Lightning\'\x17Scroll of \'Fog of Doom\'\x00\x00\x17\xa8\x00\xc8GThis is a tortuous rendition of finer helms.  A true delight to remove.\\A cursed helm originating from a sadistic wizard who enjoyed the torment of the Man-At-Arms.2This wondrous helm is a boon to the fighter class.{This mighty artifact is capable of many wondrous things, the least of which is to ferret out hidden passages and illusions.UThis strange looking but awesome helm gives the wearer resistance to chemical damage.DStrong magicks will come to the aid of the wearer of this fine helm.DStrong magicks will come to the aid of the wearer of this fine helm.TEasily one of the most sought after relics of old. It is a strong ally to the brave.\x87Created by an evil elven god to aid him in battle, it was turned aginst him in a battle with rivals.  It now aids any who can claim it.BPower will seep into the feet of the wearer of this magical piece."One of the most prized of prizes. OThe mark of a powerful warrior, this extraordinary helm is a treasure of kings.`A sick perversion.  This evil cap was a gift from an evil mage in an attempt to enslave a rival.SA snug fit allows the easy conveyance of the power-giving magicks of this fine cap.XOne of the most sought after relics by mages of all orders.  It is truly a powerful cap._Found in the tomb of some ancient wizard, it was the prize of a hard fought battle with a lich.EIts simple appearance can easily throw even the most astute of sages.GIs it said that the posessor of this fine cap is immune to many spells?OSturdy and strong, this shield will stop many a strong swing, if used properly.MThe most ancient of magicks allow this shield to come to the aid of its user.ZA sick perversion of the most ancient magic, one who looks for aid is beseiged with peril.HTruly a rare find, this shield will help defend against physical damage.?Brute magical force has turned this shield into a powerful aid.OThe culmination of magic and armor.  This magical item is valued like no other.VThe marvelous shield is valuble not only as protection, but as an aid in the darkness./For the warrior jealous of the dragon\'s breath.WNobody knows whence it came or why, but it is considered the ultimate defensive device.7This great gift allows the user to cast healing spells.CThis wondrous shield allows its user to regenerate from old wounds.(A strong defense against arcane magicks.uThis shield seems as an ordinary magical shield in all ways, however the bearer seems to have most excellent fortune.KThis shield seems to trip the bearer during battle.  What trickery is this?CThis marvelous shield allows the user to cast spells of protection.^Only sorcerers and enchanters may wear these fine gloves, all else should keep their distance.yUnable to wear gloves, the four seasons developed a magical cover for thier hands.  None will benefit but the loyal monk.>Favored by the archer, these gloves will do good for no other.3Heavy and rough, these gloves are common and cheap.JOnly non magical classes may use these gloves, a gift from the god of war.gWith the aid of magic, a character can increase their brawn while in possession of these mighty gloves.\x16Gloves of Trickery -15\x15Gloves of Trickery +2QUseable by any caste, these gloves are considerd the most powerful of their kind.{These fine gloves were worn by Regula the crusader in his trips to Hell.  They are well known and feared by all evil spawn.mThis foul curse is considered one of the most painful.  One will never play the flute again if worn too long.QRepugnant is the adventurer who falls for this curse.  Somewhere a gorgon laughs.8These are valuble gloves for the man who likes to brawl.:Mystical gloves that render the wearer resistant to magic.BPrized by all, these gloves will lend great defence to the wearer.PThese gloves appear to be magical of a beneficial nature.  Too bad they are not./Protection yes, but it feels like a steel vise.JOld cracked leather provides a minimal amount of protection for the melon.aFine silk of amazing strength lend a small amount of protection without interfering with agility.LLoose fitting and poorly made, these gloves are barely adequate for the job.ASturdy links of steel provide excellent protection for the hands.UComfortable boots made of soft leather, they offer some protection from the elements.%Heavy but they offer good protection.KThese boots not only  make the foot feel fleet, but make you fleet of foot.\\Only the dreaded hill panther will make less noise than the wearer of these enchanted boots.TThese boots will allow the wearer to perform acrobatic acts previously not possible.aThese magical boots increase the wearer\'s ability to inflict damage on an opponent during combat..A demonic looking shield with a deadly secret.4Capable of casting a magical bolt of energy at will.\x13Maliki\'s Revenge +8\x86The metalurgy behind such an item is beyond comprehension. Somehow the emerald in the metal gathers mystic energy to ward off attacks.\x90The leader of the White Unicorn church was slain by a blue dragon decades ago. His shield has been part of the dragons treasure horde until now.THA HA HA: Sir Robbin, Sir Robbin, he bravely ran away away, Brave, Brave Sir Robbin!JForged when the world was young and magic flowed upon the land like water.\x92Created by Chetnyet the Brave in his quest to rid Hell of all devilkin.  Such a fool who believes that hell can fall to the likes of just one man.LInlaid with large genstones, the value of this shield is more than cosmetic.wForged by the arch devil, Cambium for the Blood Wars of the Lava Rift.  How it found it\'s way to the Realmz is unknown.)Sturdy shafts that fly straight and true.qCapable of adding damage to any melee attack.  These gloves are favored by any who relish close quarter fighting.vA gift from the people of Sneflinbing for having saved the life of Flibli.  A cherished gnomish priest of Snelflinbig.pAlso known as "Back Scratchers" these razor sharp claws allow the wearer to do extra damage in any melee attack.\x00\x00\x00\x00\x00\x00\x00\x00\x00\x00\x00\x00\x00\x00\x00\x00\x00\x00\x00\x00\x00\x00\x00\x00\x00\x00\x00\x00\x00\x00\x00\x00\x00\x00\x00\x00\x00\x00\x00\x00\x00\x00\x00\x00\x00\x00\x00\x00\x00\x00\x00\x00\x00\x00\x00\x00\x00\x00\x00\x00\x00\x00\x00\x00\x00\x00\x00\x00\x00\x00\x00\x00\x00\x00\x00\x00\x00\x00\x00\x00\x00\x00\x00\x00\x00\x00\x00\x00\x00\x00\x00\x00\x00\x00\x00\x00\x00\x00\x00\x00\x00\x00\x00\x00\x00\x00\x00\x00\x00\x00\x00\x00\x00\x00\x00\x15r\x00\xc8;An abrasive cloth that wears on both the skin and patience.VThis wondrous robe can be worn only by magical castes.  A true friend in a tight spot.<A delicate cloth that has been woven by the hands of nature.:A crafty magic robe that gives its wearer extra abilities.KStrong magic turns this outwardly plain robe into a valuable magical armor.UThis powerful garment allows its wearer to store more spell points when fully rested.oThe god Hermes has bestowed upon this garment his own special touch.  Donning it shall gain you extra movement.eThe god of war has a special place in his heart for the powerful mage, and this mighty robe is proof.=A fine-looking garment, but its foul nature is most apparent.rMade from the hide of some ill- fated creature.  The protection it offers is hardly worth dealing with the stench.<Soft and supple, this well- fitting garment speaks of magic.MA truly well-crafted garment. A slight sheen tells of its magical properties.GRarely has the making of such a fine suit of protection been witnessed.\x7fThis is the ultimate in organic- based armor.  Tough as dragon\'s hide, soft as lamb\'s skin.  It must be worth a king\'s fortune.cSpawned from the pits of hell itself!  Woe is the adventurer who mistakes this for a suit of armor.BHeavy and binding, but effective in stopping most awkward thrusts.\\A fine suit that fits as well as it looks.  It is comfortable to both mind and body to wear.bA fortune in mithril was expended in the making, and any fool can see it was well worth the price.kThis is the most incredible suit of its kind ever devised.  Even for the gods, this is a treasured garment.VA somewhat rusty, but effective metal skin.  Strong is the man who wears it with ease.@A superior craftsman was surely the creator of this fine suit.  +Powerful protection from almost any attack.fThis suit looks innocent enough until you try it on.  What twisted wizard created such poison as this?IExtremely heavy and expensive.  If the enemy won\'t get you, poverty will.SA fine-looking suit of armor.  Nobody can deny the true value of such a metal skin.aCrafted from the most valuable of metals in the eyes of a smithy.  This suit is truly a treasure.XA truly awesome suit of armor.  Its gleam is only outdone by the protection it provides.EThe ultimate in diabolical intentions.  Somewhere an evil god laughs.oA culmination in the art of magical protection. This suit\'s strong magic would make any wizard cry with desire.WThis most valued of armors gives its wearer an innate resistance to magic of all kinds.uThe prized armor of king Scorland, this worthy treasure imbues many fine attributes required by both beggar and king.tThis foul prison steals all the qualities a man might wish to gain from its use.  This is indeed without precedence.MStrange magic makes these finely-crafted gauntlets glow with a strange light.NSought after by the most experienced wizards, these gauntlets are a true find.\x80Powers such as those used to create these gauntlets are rare indeed.  Some whisper that the gods themselves are the originators.YThese gauntlets radiate so that none but the moronic will deny the power of their bearer.\x83The finest of their kind. These were once a gift from one powerful god to another.  How they came to the Realmz is only guessed at.\x81Contemplate what is worst in men, and you will find a portrait of he who created this filth.  Baaahhh! They hurt even to look at!KA source of protection for those capable of defending the possession of it.1Truly a sweet release to the troubled conscience.SWearable by only small races. The most powerful of magic blesses this fine garment.vThis wondrous cloak is wearable only to mixed races.  Made by a wizard who looked kindly upon the outcasts of society. Its very name implies its value.\x9cNo other than a true monk may wear this cloak.  It was only rumored to exist.  The Four Seasons seek this cloak for their own gain.  How can four split one? To be worn only by the crusader.jA true treasure.  Buried with the Duke of Evenlase, this cloak was thought to be lost to all but the gods.rCapable of giving supernatural powers to its wearer, this cloak is one of the most sought after prizes ever known.uIf one listens closely, the voice of the ancient powers that created this cloak can be heard.  Great was their power._A rogues best friend, if that is even possible.  None but a rogue may wear this powerful piece.\x85Many have considered the possible good that could have been done with the huge amounts of raw power used to create this cursed cloak.UA fine cover that lends a small amount of protection from both foes and the elements.xThick cloth stuffed with thick cords of animal hair.  This suit is hot but less cumbersome than leather or other armors.7Magically enchanted to offer a little extra protection.dAn unending flow of life-force comes from this magical robe healing all those of non-Elven heritage.\x86The metalurgy behind such an item is beyond comprehension. Somehow the emerald in the metal gathers mystic energy to ward off attacks.GSought after by the most experienced wizards, this robe is a true find.=Basic protection for those that cannot be hindered in battle.SA gift from a dwarven blacksmith in exchange for a large quantity of mithril steel.^Captured from an evil Audible Spirit who had a passion for torturing victims with Razor Claws.\x00\x00\x00\x00\x00\x00\x00\x00\x00\x00\x00\x00\x00\x00\x00\x00\x00\x00\x00\x00\x00\x00\x00\x00\x00\x00\x00\x00\x00\x00\x00\x00\x00\x00\x00\x00\x00\x00\x00\x00\x00\x00\x00\x00\x00\x00\x00\x00\x00\x00\x00\x00\x00\x00\x00\x00\x00\x00\x00\x00\x00\x00\x00\x00\x00\x00\x00\x00\x00\x00\x00\x00\x00\x00\x00\x00\x00\x00\x00\x00\x00\x00\x00\x00\x00\x00\x00\x00\x00\x00\x00\x00\x00\x00\x00\x00\x00\x00\x00\x00\x00\x00\x00\x00\x00\x00\x00\x00\x00\x00\x00\x00\x00\x00\x00\x00\x00\x00\x00\x00\x00\x00\x00\x00\x00\x00\x00\x00\x00\x00\x00\x00\x00\x00\x00\x00\x00\x00\x00\x00\x00\x00\x00\x01\x00\x00\x00\xd9\x03\x00\x00\xd8\x03\x00\x00\x01E\x02Y\x85|%\xd4\x00\x00\x00\x1c\x00\xca\x00\x01STR#\x00\x0b\x00\x12vers\x00\x00\x00\xa2\x00\xc8\x00\x00 \x00+\xe9\x00\x00\x00\x00\x00\xc9\x00\x06 \x00\'\x08\x00\x00\x00\x00\x00\xca\x00\x12 \x00\xc2\x8d\x00\x00\x00\x00\x01\x90\x00\x1d \x00.\xa6\x00\x00\x00\x00\x01\x91\x00# \x001\x86\x00\x00\x00\x00\x02Z\x00/ \x00x\x1d\x00\x00\x00\x00\x01\x92\x00: \x00\xaa\xe1\x00\x00\x00\x00\x00\x00\x00E \x00\x12\xae\x00\x00\x00\x00\x00\x01\x00M \x00\x1a0\x00\x00\x00\x00\x00\x02\x00[ \x007^\x00\x00\x00\x00\x02X\x00i \x00\x0c\x8e\x00\x00\x00\x00\x02Y\x00o \x00\x00G\x00\x00\x00\x00\x00\x05\xff\xff \x00\x00\x00\x02Y_h\x05Armor\x0bArmor short\nArmor long\x05Helms\x0bHelms short\nMagic Long\nHelms long\x07Weapons\rWeapons Short\rWeapons, Long\x05Magic\x0bMagic Short'
p5
s.